; Function Attrs: mustprogress nounwind uwtable
define void @_ZN9grpc_core9XdsClient12ChannelState12AdsCallState6OrphanEv(ptr noundef nonnull align 8 dereferenceable(144) %this) unnamed_addr #4 align 2 personality ptr @__gxx_personality_v0 {
entry:
  %state_map_ = getelementptr inbounds i8, ptr %this, i64 96
  %_M_parent.i.i.i.i = getelementptr inbounds i8, ptr %this, i64 112
  %0 = load ptr, ptr %_M_parent.i.i.i.i, align 8
  invoke void @_ZNSt8_Rb_treeIPKN9grpc_core15XdsResourceTypeESt4pairIKS3_NS0_9XdsClient12ChannelState12AdsCallState17ResourceTypeStateEESt10_Select1stISA_ESt4lessIS3_ESaISA_EE8_M_eraseEPSt13_Rb_tree_nodeISA_E(ptr noundef nonnull align 8 dereferenceable(48) %state_map_, ptr noundef %0)
          to label %_ZNSt3mapIPKN9grpc_core15XdsResourceTypeENS0_9XdsClient12ChannelState12AdsCallState17ResourceTypeStateESt4lessIS3_ESaISt4pairIKS3_S7_EEE5clearEv.exit unwind label %terminate.lpad.i.i

terminate.lpad.i.i:                               ; preds = %entry
  %1 = landingpad { ptr, i32 }
          catch ptr null
  %2 = extractvalue { ptr, i32 } %1, 0
  tail call void @__clang_call_terminate(ptr %2) #27
  unreachable

_ZNSt3mapIPKN9grpc_core15XdsResourceTypeENS0_9XdsClient12ChannelState12AdsCallState17ResourceTypeStateESt4lessIS3_ESaISt4pairIKS3_S7_EEE5clearEv.exit: ; preds = %entry
  %add.ptr.i.i = getelementptr inbounds i8, ptr %this, i64 104
  store ptr null, ptr %_M_parent.i.i.i.i, align 8
  %_M_left.i.i.i = getelementptr inbounds i8, ptr %this, i64 120
  store ptr %add.ptr.i.i, ptr %_M_left.i.i.i, align 8
  %_M_right.i.i.i = getelementptr inbounds i8, ptr %this, i64 128
  store ptr %add.ptr.i.i, ptr %_M_right.i.i.i, align 8
  %_M_node_count.i.i.i = getelementptr inbounds i8, ptr %this, i64 136
  store i64 0, ptr %_M_node_count.i.i.i, align 8
  %call_ = getelementptr inbounds i8, ptr %this, i64 24
  %3 = load ptr, ptr %call_, align 8
  store ptr null, ptr %call_, align 8
  %tobool.not.i.i = icmp eq ptr %3, null
  br i1 %tobool.not.i.i, label %_ZNSt10unique_ptrIN9grpc_core19XdsTransportFactory12XdsTransport13StreamingCallENS0_16OrphanableDeleteEE5resetEPS3_.exit, label %if.then.i.i

if.then.i.i:                                      ; preds = %_ZNSt3mapIPKN9grpc_core15XdsResourceTypeENS0_9XdsClient12ChannelState12AdsCallState17ResourceTypeStateESt4lessIS3_ESaISt4pairIKS3_S7_EEE5clearEv.exit
  %vtable.i.i.i = load ptr, ptr %3, align 8
  %4 = load ptr, ptr %vtable.i.i.i, align 8
  invoke void %4(ptr noundef nonnull align 8 dereferenceable(8) %3)
          to label %_ZNSt10unique_ptrIN9grpc_core19XdsTransportFactory12XdsTransport13StreamingCallENS0_16OrphanableDeleteEE5resetEPS3_.exit unwind label %terminate.lpad.i.i1

terminate.lpad.i.i1:                              ; preds = %if.then.i.i
  %5 = landingpad { ptr, i32 }
          catch ptr null
  %6 = extractvalue { ptr, i32 } %5, 0
  tail call void @__clang_call_terminate(ptr %6) #27
  unreachable

_ZNSt10unique_ptrIN9grpc_core19XdsTransportFactory12XdsTransport13StreamingCallENS0_16OrphanableDeleteEE5resetEPS3_.exit: ; preds = %_ZNSt3mapIPKN9grpc_core15XdsResourceTypeENS0_9XdsClient12ChannelState12AdsCallState17ResourceTypeStateESt4lessIS3_ESaISt4pairIKS3_S7_EEE5clearEv.exit, %if.then.i.i
  ret void
}